target datalayout = "e-m:e-p270:32:32-p271:32:32-p272:64:64-i64:64-i128:128-f80:128-n8:16:32:64-S128"
target triple = "x86_64-pc-linux-gnu"

%struct.run_command_args_t = type { ptr, ptr, ptr, i8, i32, i32, i8, ptr, ptr, ptr, ptr, i64, ptr, i8 }

@.str.7 = private unnamed_addr constant [27 x i8] c"%s failed: rc:%u output:%s\00", align 1
@.str.8 = private unnamed_addr constant [33 x i8] c"%s killed by signal %u output:%s\00", align 1
@.str.9 = private unnamed_addr constant [35 x i8] c"%s didn't run: status:%d reason:%s\00", align 1
@.str.10 = private unnamed_addr constant [35 x i8] c"%s: %s: %s success rc:%d output:%s\00", align 1
@plugin_type = external constant [0 x i8], align 1
@__func__._run_subpath_command = private unnamed_addr constant [21 x i8] c"_run_subpath_command\00", align 1

; Function Attrs: nounwind uwtable
define internal i32 @_run_subpath_command(ptr noundef %0, ptr noundef %1) #0 {
  %3 = alloca ptr, align 8
  %4 = alloca ptr, align 8
  %5 = alloca ptr, align 8
  %6 = alloca ptr, align 8
  %7 = alloca i32, align 4
  store ptr %0, ptr %3, align 8
  store ptr %1, ptr %4, align 8
  call void @llvm.lifetime.start.p0(i64 8, ptr %5) #6
  %8 = load ptr, ptr %4, align 8
  store ptr %8, ptr %5, align 8
  call void @llvm.lifetime.start.p0(i64 8, ptr %6) #6
  call void @llvm.lifetime.start.p0(i64 4, ptr %7) #6
  store i32 0, ptr %7, align 4
  %9 = load ptr, ptr %3, align 8
  %10 = load ptr, ptr %5, align 8
  %11 = getelementptr inbounds nuw %struct.run_command_args_t, ptr %10, i32 0, i32 8
  store ptr %9, ptr %11, align 8
  %12 = load ptr, ptr %3, align 8
  %13 = load ptr, ptr %5, align 8
  %14 = getelementptr inbounds nuw %struct.run_command_args_t, ptr %13, i32 0, i32 7
  %15 = load ptr, ptr %14, align 8
  %16 = getelementptr inbounds ptr, ptr %15, i64 0
  store ptr %12, ptr %16, align 8
  %17 = load ptr, ptr %5, align 8
  %18 = call ptr @run_command(ptr noundef %17)
  store ptr %18, ptr %6, align 8
  %19 = load ptr, ptr %5, align 8
  %20 = getelementptr inbounds nuw %struct.run_command_args_t, ptr %19, i32 0, i32 10
  %21 = load ptr, ptr %20, align 8
  %22 = load i32, ptr %21, align 4
  %23 = icmp ne i32 %22, 0
  br i1 %23, label %24, label %77

24:                                               ; preds = %2
  %25 = load ptr, ptr %5, align 8
  %26 = getelementptr inbounds nuw %struct.run_command_args_t, ptr %25, i32 0, i32 10
  %27 = load ptr, ptr %26, align 8
  %28 = load i32, ptr %27, align 4
  %29 = and i32 %28, 127
  %30 = icmp eq i32 %29, 0
  br i1 %30, label %31, label %43

31:                                               ; preds = %24
  %32 = load ptr, ptr %5, align 8
  %33 = getelementptr inbounds nuw %struct.run_command_args_t, ptr %32, i32 0, i32 9
  %34 = load ptr, ptr %33, align 8
  %35 = load ptr, ptr %5, align 8
  %36 = getelementptr inbounds nuw %struct.run_command_args_t, ptr %35, i32 0, i32 10
  %37 = load ptr, ptr %36, align 8
  %38 = load i32, ptr %37, align 4
  %39 = and i32 %38, 65280
  %40 = ashr i32 %39, 8
  %41 = load ptr, ptr %6, align 8
  %42 = call i32 (ptr, ...) @error(ptr noundef @.str.7, ptr noundef %34, i32 noundef %40, ptr noundef %41)
  br label %76

43:                                               ; preds = %24
  %44 = load ptr, ptr %5, align 8
  %45 = getelementptr inbounds nuw %struct.run_command_args_t, ptr %44, i32 0, i32 10
  %46 = load ptr, ptr %45, align 8
  %47 = load i32, ptr %46, align 4
  %48 = and i32 %47, 127
  %49 = add nsw i32 %48, 1
  %50 = trunc i32 %49 to i8
  %51 = sext i8 %50 to i32
  %52 = ashr i32 %51, 1
  %53 = icmp sgt i32 %52, 0
  br i1 %53, label %54, label %65

54:                                               ; preds = %43
  %55 = load ptr, ptr %5, align 8
  %56 = getelementptr inbounds nuw %struct.run_command_args_t, ptr %55, i32 0, i32 9
  %57 = load ptr, ptr %56, align 8
  %58 = load ptr, ptr %5, align 8
  %59 = getelementptr inbounds nuw %struct.run_command_args_t, ptr %58, i32 0, i32 10
  %60 = load ptr, ptr %59, align 8
  %61 = load i32, ptr %60, align 4
  %62 = and i32 %61, 127
  %63 = load ptr, ptr %6, align 8
  %64 = call i32 (ptr, ...) @error(ptr noundef @.str.8, ptr noundef %57, i32 noundef %62, ptr noundef %63)
  br label %75

65:                                               ; preds = %43
  %66 = load ptr, ptr %5, align 8
  %67 = getelementptr inbounds nuw %struct.run_command_args_t, ptr %66, i32 0, i32 9
  %68 = load ptr, ptr %67, align 8
  %69 = load ptr, ptr %5, align 8
  %70 = getelementptr inbounds nuw %struct.run_command_args_t, ptr %69, i32 0, i32 10
  %71 = load ptr, ptr %70, align 8
  %72 = load i32, ptr %71, align 4
  %73 = load ptr, ptr %6, align 8
  %74 = call i32 (ptr, ...) @error(ptr noundef @.str.9, ptr noundef %68, i32 noundef %72, ptr noundef %73)
  br label %75

75:                                               ; preds = %65, %54
  br label %76

76:                                               ; preds = %75, %31
  store i32 -1, ptr %7, align 4
  br label %96

77:                                               ; preds = %2
  br label %78

78:                                               ; preds = %77
  br label %79

79:                                               ; preds = %78
  %80 = call i32 @get_log_level()
  %81 = icmp sge i32 %80, 6
  br i1 %81, label %82, label %91

82:                                               ; preds = %79
  %83 = load ptr, ptr %5, align 8
  %84 = getelementptr inbounds nuw %struct.run_command_args_t, ptr %83, i32 0, i32 9
  %85 = load ptr, ptr %84, align 8
  %86 = load ptr, ptr %5, align 8
  %87 = getelementptr inbounds nuw %struct.run_command_args_t, ptr %86, i32 0, i32 10
  %88 = load ptr, ptr %87, align 8
  %89 = load i32, ptr %88, align 4
  %90 = load ptr, ptr %6, align 8
  call void (i32, ptr, ...) @log_var(i32 noundef 6, ptr noundef @.str.10, ptr noundef @plugin_type, ptr noundef @__func__._run_subpath_command, ptr noundef %85, i32 noundef %89, ptr noundef %90)
  br label %91

91:                                               ; preds = %82, %79
  br label %92

92:                                               ; preds = %91
  br label %93

93:                                               ; preds = %92
  br label %94

94:                                               ; preds = %93
  br label %95

95:                                               ; preds = %94
  br label %96

96:                                               ; preds = %95, %76
  call void @slurm_xfree(ptr noundef %6)
  %97 = load i32, ptr %7, align 4
  call void @llvm.lifetime.end.p0(i64 4, ptr %7) #6
  call void @llvm.lifetime.end.p0(i64 8, ptr %6) #6
  call void @llvm.lifetime.end.p0(i64 8, ptr %5) #6
  ret i32 %97
}